target datalayout = "e-m:e-p270:32:32-p271:32:32-p272:64:64-i64:64-i128:128-f80:128-n8:16:32:64-S128"
target triple = "x86_64-pc-linux-gnu"

@bluetooth_uuids = global ptr null, align 8
@proto_bluetooth = hidden global i32 0, align 4
@.str.1266 = private unnamed_addr constant [18 x i8] c"llc.bluetooth_pid\00", align 1
@bluetooth_handle = internal global ptr null, align 8
@bluetooth_bthci_handle = internal global ptr null, align 8
@bluetooth_btmon_handle = internal global ptr null, align 8
@bluetooth_usb_handle = internal global ptr null, align 8
@.str.1291 = private unnamed_addr constant [5 x i8] c"btle\00", align 1
@btle_handle = internal global ptr null, align 8
@.str.1292 = private unnamed_addr constant [8 x i8] c"hci_usb\00", align 1
@hci_usb_handle = internal global ptr null, align 8
@.str.1293 = private unnamed_addr constant [11 x i8] c"wtap_encap\00", align 1
@.str.1294 = private unnamed_addr constant [12 x i8] c"usb.product\00", align 1
@.str.1295 = private unnamed_addr constant [13 x i8] c"usb.protocol\00", align 1
@.str.1296 = private unnamed_addr constant [11 x i8] c"usb.device\00", align 1
@.str.1297 = private unnamed_addr constant [37 x i8] c"00000001-0000-1000-8000-0002EE000002\00", align 1
@.str.1298 = private unnamed_addr constant [14 x i8] c"SyncML Server\00", align 1
@.str.1299 = private unnamed_addr constant [37 x i8] c"00000002-0000-1000-8000-0002EE000002\00", align 1
@.str.1300 = private unnamed_addr constant [14 x i8] c"SyncML Client\00", align 1
@.str.1301 = private unnamed_addr constant [37 x i8] c"7905F431-B5CE-4E99-A40F-4B1E122D00D0\00", align 1
@.str.1302 = private unnamed_addr constant [34 x i8] c"Apple Notification Center Service\00", align 1
@.str.1303 = private unnamed_addr constant [6 x i8] c"eapol\00", align 1
@.str.1304 = private unnamed_addr constant [8 x i8] c"btl2cap\00", align 1

; Function Attrs: nounwind uwtable
define hidden void @proto_reg_handoff_bluetooth() #1 {
  %1 = alloca ptr, align 8
  %2 = alloca ptr, align 8
  %3 = load i32, ptr @proto_bluetooth, align 4
  %4 = call ptr @find_dissector_add_dependency(ptr noundef @.str.1291, i32 noundef %3)
  store ptr %4, ptr @btle_handle, align 8
  %5 = load i32, ptr @proto_bluetooth, align 4
  %6 = call ptr @find_dissector_add_dependency(ptr noundef @.str.1292, i32 noundef %5)
  store ptr %6, ptr @hci_usb_handle, align 8
  %7 = load ptr, ptr @bluetooth_bthci_handle, align 8
  call void @dissector_add_uint(ptr noundef @.str.1293, i32 noundef 102, ptr noundef %7)
  %8 = load ptr, ptr @bluetooth_handle, align 8
  call void @dissector_add_uint(ptr noundef @.str.1293, i32 noundef 41, ptr noundef %8)
  %9 = load ptr, ptr @bluetooth_handle, align 8
  call void @dissector_add_uint(ptr noundef @.str.1293, i32 noundef 99, ptr noundef %9)
  %10 = load ptr, ptr @bluetooth_btmon_handle, align 8
  call void @dissector_add_uint(ptr noundef @.str.1293, i32 noundef 159, ptr noundef %10)
  %11 = load ptr, ptr @bluetooth_handle, align 8
  call void @dissector_add_uint(ptr noundef @.str.1293, i32 noundef 118, ptr noundef %11)
  %12 = load ptr, ptr @bluetooth_handle, align 8
  call void @dissector_add_uint(ptr noundef @.str.1293, i32 noundef 154, ptr noundef %12)
  %13 = load ptr, ptr @bluetooth_handle, align 8
  call void @dissector_add_uint(ptr noundef @.str.1293, i32 noundef 161, ptr noundef %13)
  %14 = load ptr, ptr @bluetooth_handle, align 8
  call void @dissector_add_uint(ptr noundef @.str.1293, i32 noundef 160, ptr noundef %14)
  %15 = load ptr, ptr @bluetooth_usb_handle, align 8
  call void @dissector_add_uint(ptr noundef @.str.1294, i32 noundef 173810152, ptr noundef %15)
  %16 = load ptr, ptr @bluetooth_usb_handle, align 8
  call void @dissector_add_uint(ptr noundef @.str.1294, i32 noundef 288428033, ptr noundef %16)
  %17 = load ptr, ptr @bluetooth_usb_handle, align 8
  call void @dissector_add_uint(ptr noundef @.str.1294, i32 noundef 84738177, ptr noundef %17)
  %18 = load ptr, ptr @bluetooth_usb_handle, align 8
  call void @dissector_add_uint(ptr noundef @.str.1294, i32 noundef 173810072, ptr noundef %18)
  %19 = load ptr, ptr @bluetooth_usb_handle, align 8
  call void @dissector_add_uint(ptr noundef @.str.1294, i32 noundef 173810152, ptr noundef %19)
  %20 = load ptr, ptr @bluetooth_usb_handle, align 8
  call void @dissector_add_uint(ptr noundef @.str.1294, i32 noundef 79627040, ptr noundef %20)
  %21 = load ptr, ptr @bluetooth_usb_handle, align 8
  call void @dissector_add_uint(ptr noundef @.str.1294, i32 noundef 332608373, ptr noundef %21)
  %22 = load ptr, ptr @bluetooth_usb_handle, align 8
  call void @dissector_add_uint(ptr noundef @.str.1295, i32 noundef 14680321, ptr noundef %22)
  %23 = load ptr, ptr @bluetooth_usb_handle, align 8
  call void @dissector_add_uint(ptr noundef @.str.1295, i32 noundef 14680324, ptr noundef %23)
  %24 = load ptr, ptr @bluetooth_usb_handle, align 8
  call void @dissector_add_for_decode_as(ptr noundef @.str.1296, ptr noundef %24)
  %25 = load ptr, ptr @bluetooth_uuids, align 8
  call void @wmem_tree_insert_string(ptr noundef %25, ptr noundef @.str.1297, ptr noundef @.str.1298, i32 noundef 0)
  %26 = load ptr, ptr @bluetooth_uuids, align 8
  call void @wmem_tree_insert_string(ptr noundef %26, ptr noundef @.str.1299, ptr noundef @.str.1300, i32 noundef 0)
  %27 = load ptr, ptr @bluetooth_uuids, align 8
  call void @wmem_tree_insert_string(ptr noundef %27, ptr noundef @.str.1301, ptr noundef @.str.1302, i32 noundef 0)
  %28 = call ptr @find_dissector(ptr noundef @.str.1303)
  store ptr %28, ptr %1, align 8
  %29 = call ptr @find_dissector(ptr noundef @.str.1304)
  store ptr %29, ptr %2, align 8
  %30 = load ptr, ptr %1, align 8
  call void @dissector_add_uint(ptr noundef @.str.1266, i32 noundef 3, ptr noundef %30)
  %31 = load ptr, ptr %2, align 8
  call void @dissector_add_uint(ptr noundef @.str.1266, i32 noundef 1, ptr noundef %31)
  ret void
}