; Function Attrs: nounwind uwtable
define hidden void @proto_reg_handoff_bluetooth() local_unnamed_addr #1 {
  %1 = load i32, ptr @proto_bluetooth, align 4
  %2 = tail call ptr @find_dissector_add_dependency(ptr noundef nonnull @.str.1291, i32 noundef %1) #9
  store ptr %2, ptr @btle_handle, align 8
  %3 = load i32, ptr @proto_bluetooth, align 4
  %4 = tail call ptr @find_dissector_add_dependency(ptr noundef nonnull @.str.1292, i32 noundef %3) #9
  store ptr %4, ptr @hci_usb_handle, align 8
  %5 = load ptr, ptr @bluetooth_bthci_handle, align 8
  tail call void @dissector_add_uint(ptr noundef nonnull @.str.1293, i32 noundef 102, ptr noundef %5) #9
  %6 = load ptr, ptr @bluetooth_handle, align 8
  tail call void @dissector_add_uint(ptr noundef nonnull @.str.1293, i32 noundef 41, ptr noundef %6) #9
  %7 = load ptr, ptr @bluetooth_handle, align 8
  tail call void @dissector_add_uint(ptr noundef nonnull @.str.1293, i32 noundef 99, ptr noundef %7) #9
  %8 = load ptr, ptr @bluetooth_btmon_handle, align 8
  tail call void @dissector_add_uint(ptr noundef nonnull @.str.1293, i32 noundef 159, ptr noundef %8) #9
  %9 = load ptr, ptr @bluetooth_handle, align 8
  tail call void @dissector_add_uint(ptr noundef nonnull @.str.1293, i32 noundef 118, ptr noundef %9) #9
  %10 = load ptr, ptr @bluetooth_handle, align 8
  tail call void @dissector_add_uint(ptr noundef nonnull @.str.1293, i32 noundef 154, ptr noundef %10) #9
  %11 = load ptr, ptr @bluetooth_handle, align 8
  tail call void @dissector_add_uint(ptr noundef nonnull @.str.1293, i32 noundef 161, ptr noundef %11) #9
  %12 = load ptr, ptr @bluetooth_handle, align 8
  tail call void @dissector_add_uint(ptr noundef nonnull @.str.1293, i32 noundef 160, ptr noundef %12) #9
  %13 = load ptr, ptr @bluetooth_usb_handle, align 8
  tail call void @dissector_add_uint(ptr noundef nonnull @.str.1294, i32 noundef 173810152, ptr noundef %13) #9
  %14 = load ptr, ptr @bluetooth_usb_handle, align 8
  tail call void @dissector_add_uint(ptr noundef nonnull @.str.1294, i32 noundef 288428033, ptr noundef %14) #9
  %15 = load ptr, ptr @bluetooth_usb_handle, align 8
  tail call void @dissector_add_uint(ptr noundef nonnull @.str.1294, i32 noundef 84738177, ptr noundef %15) #9
  %16 = load ptr, ptr @bluetooth_usb_handle, align 8
  tail call void @dissector_add_uint(ptr noundef nonnull @.str.1294, i32 noundef 173810072, ptr noundef %16) #9
  %17 = load ptr, ptr @bluetooth_usb_handle, align 8
  tail call void @dissector_add_uint(ptr noundef nonnull @.str.1294, i32 noundef 173810152, ptr noundef %17) #9
  %18 = load ptr, ptr @bluetooth_usb_handle, align 8
  tail call void @dissector_add_uint(ptr noundef nonnull @.str.1294, i32 noundef 79627040, ptr noundef %18) #9
  %19 = load ptr, ptr @bluetooth_usb_handle, align 8
  tail call void @dissector_add_uint(ptr noundef nonnull @.str.1294, i32 noundef 332608373, ptr noundef %19) #9
  %20 = load ptr, ptr @bluetooth_usb_handle, align 8
  tail call void @dissector_add_uint(ptr noundef nonnull @.str.1295, i32 noundef 14680321, ptr noundef %20) #9
  %21 = load ptr, ptr @bluetooth_usb_handle, align 8
  tail call void @dissector_add_uint(ptr noundef nonnull @.str.1295, i32 noundef 14680324, ptr noundef %21) #9
  %22 = load ptr, ptr @bluetooth_usb_handle, align 8
  tail call void @dissector_add_for_decode_as(ptr noundef nonnull @.str.1296, ptr noundef %22) #9
  %23 = load ptr, ptr @bluetooth_uuids, align 8
  tail call void @wmem_tree_insert_string(ptr noundef %23, ptr noundef nonnull @.str.1297, ptr noundef nonnull @.str.1298, i32 noundef 0) #9
  %24 = load ptr, ptr @bluetooth_uuids, align 8
  tail call void @wmem_tree_insert_string(ptr noundef %24, ptr noundef nonnull @.str.1299, ptr noundef nonnull @.str.1300, i32 noundef 0) #9
  %25 = load ptr, ptr @bluetooth_uuids, align 8
  tail call void @wmem_tree_insert_string(ptr noundef %25, ptr noundef nonnull @.str.1301, ptr noundef nonnull @.str.1302, i32 noundef 0) #9
  %26 = tail call ptr @find_dissector(ptr noundef nonnull @.str.1303) #9
  %27 = tail call ptr @find_dissector(ptr noundef nonnull @.str.1304) #9
  tail call void @dissector_add_uint(ptr noundef nonnull @.str.1266, i32 noundef 3, ptr noundef %26) #9
  tail call void @dissector_add_uint(ptr noundef nonnull @.str.1266, i32 noundef 1, ptr noundef %27) #9
  ret void
}